target datalayout = "e-m:e-p270:32:32-p271:32:32-p272:64:64-i64:64-i128:128-f80:128-n8:16:32:64-S128"
target triple = "x86_64-pc-linux-gnu"

%struct.ident_t = type { i32, i32, i32, i32, ptr }
%"struct.faiss::RandomGenerator" = type { %"class.std::mersenne_twister_engine" }
%"class.std::mersenne_twister_engine" = type { [624 x i64], i64 }

@2 = private unnamed_addr constant %struct.ident_t { i32 0, i32 2, i32 0, i32 22, ptr @0 }, align 8
@_ZN5faiss15RandomGeneratorC1El = unnamed_addr alias void (ptr, i64), ptr @_ZN5faiss15RandomGeneratorC2El

; Function Attrs: mustprogress uwtable
define noundef i32 @_ZN5faiss15RandomGenerator8rand_intEv(ptr noundef nonnull align 8 dereferenceable(5000) %0) #0 align 2 {
  %2 = alloca ptr, align 8
  store ptr %0, ptr %2, align 8, !tbaa !4
  %3 = load ptr, ptr %2, align 8
  %4 = getelementptr inbounds nuw %"struct.faiss::RandomGenerator", ptr %3, i32 0, i32 0
  %5 = call noundef i64 @_ZNSt23mersenne_twister_engineImLm32ELm624ELm397ELm31ELm2567483615ELm11ELm4294967295ELm7ELm2636928640ELm15ELm4022730752ELm18ELm1812433253EEclEv(ptr noundef nonnull align 8 dereferenceable(5000) %4)
  %6 = and i64 %5, 2147483647
  %7 = trunc i64 %6 to i32
  ret i32 %7
}

; Function Attrs: mustprogress uwtable
define void @_ZN5faiss10int64_randEPlml(ptr noundef %0, i64 noundef %1, i64 noundef %2) #0 {
  %4 = alloca ptr, align 8
  %5 = alloca i64, align 8
  %6 = alloca i64, align 8
  %7 = alloca i64, align 8
  %8 = alloca %"struct.faiss::RandomGenerator", align 8
  %9 = alloca i32, align 4
  %10 = alloca i32, align 4
  store ptr %0, ptr %4, align 8, !tbaa !29
  store i64 %1, ptr %5, align 8, !tbaa !9
  store i64 %2, ptr %6, align 8, !tbaa !9
  call void @llvm.lifetime.start.p0(i64 8, ptr %7) #5
  %11 = load i64, ptr %5, align 8, !tbaa !9
  %12 = icmp ult i64 %11, 1024
  %13 = select i1 %12, i32 1, i32 1024
  %14 = sext i32 %13 to i64
  store i64 %14, ptr %7, align 8, !tbaa !9
  call void @llvm.lifetime.start.p0(i64 5000, ptr %8) #5
  %15 = load i64, ptr %6, align 8, !tbaa !9
  call void @_ZN5faiss15RandomGeneratorC1El(ptr noundef nonnull align 8 dereferenceable(5000) %8, i64 noundef %15)
  call void @llvm.lifetime.start.p0(i64 4, ptr %9) #5
  %16 = call noundef i32 @_ZN5faiss15RandomGenerator8rand_intEv(ptr noundef nonnull align 8 dereferenceable(5000) %8)
  store i32 %16, ptr %9, align 4, !tbaa !19
  call void @llvm.lifetime.start.p0(i64 4, ptr %10) #5
  %17 = call noundef i32 @_ZN5faiss15RandomGenerator8rand_intEv(ptr noundef nonnull align 8 dereferenceable(5000) %8)
  store i32 %17, ptr %10, align 4, !tbaa !19
  call void (ptr, i32, ptr, ...) @__kmpc_fork_call(ptr @2, i32 5, ptr @_ZN5faiss10int64_randEPlml.omp_outlined, ptr %7, ptr %9, ptr %10, ptr %5, ptr %4)
  call void @llvm.lifetime.end.p0(i64 4, ptr %10) #5
  call void @llvm.lifetime.end.p0(i64 4, ptr %9) #5
  call void @llvm.lifetime.end.p0(i64 5000, ptr %8) #5
  call void @llvm.lifetime.end.p0(i64 8, ptr %7) #5
  ret void
}