; Function Attrs: mustprogress uwtable
define void @_ZN5faiss10int64_randEPlml(ptr noundef %0, i64 noundef %1, i64 noundef %2) local_unnamed_addr #2 {
  %4 = alloca ptr, align 8
  %5 = alloca i64, align 8
  %6 = alloca i64, align 8
  %7 = alloca %"struct.faiss::RandomGenerator", align 8
  %8 = alloca i32, align 4
  %9 = alloca i32, align 4
  store ptr %0, ptr %4, align 8, !tbaa !28
  store i64 %1, ptr %5, align 8, !tbaa !4
  call void @llvm.lifetime.start.p0(i64 8, ptr nonnull %6) #6
  %10 = icmp ult i64 %1, 1024
  %11 = select i1 %10, i64 1, i64 1024
  store i64 %11, ptr %6, align 8, !tbaa !4
  call void @llvm.lifetime.start.p0(i64 5000, ptr nonnull %7) #6
  call void @_ZN5faiss15RandomGeneratorC1El(ptr noundef nonnull align 8 dereferenceable(5000) %7, i64 noundef %2)
  call void @llvm.lifetime.start.p0(i64 4, ptr nonnull %8) #6
  %12 = call noundef i64 @_ZNSt23mersenne_twister_engineImLm32ELm624ELm397ELm31ELm2567483615ELm11ELm4294967295ELm7ELm2636928640ELm15ELm4022730752ELm18ELm1812433253EEclEv(ptr noundef nonnull align 8 dereferenceable(5000) %7)
  %13 = trunc i64 %12 to i32
  %14 = and i32 %13, 2147483647
  store i32 %14, ptr %8, align 4, !tbaa !19
  call void @llvm.lifetime.start.p0(i64 4, ptr nonnull %9) #6
  %15 = call noundef i64 @_ZNSt23mersenne_twister_engineImLm32ELm624ELm397ELm31ELm2567483615ELm11ELm4294967295ELm7ELm2636928640ELm15ELm4022730752ELm18ELm1812433253EEclEv(ptr noundef nonnull align 8 dereferenceable(5000) %7)
  %16 = trunc i64 %15 to i32
  %17 = and i32 %16, 2147483647
  store i32 %17, ptr %9, align 4, !tbaa !19
  call void (ptr, i32, ptr, ...) @__kmpc_fork_call(ptr nonnull @2, i32 5, ptr nonnull @_ZN5faiss10int64_randEPlml.omp_outlined, ptr nonnull %6, ptr nonnull %8, ptr nonnull %9, ptr nonnull %5, ptr nonnull %4)
  call void @llvm.lifetime.end.p0(i64 4, ptr nonnull %9) #6
  call void @llvm.lifetime.end.p0(i64 4, ptr nonnull %8) #6
  call void @llvm.lifetime.end.p0(i64 5000, ptr nonnull %7) #6
  call void @llvm.lifetime.end.p0(i64 8, ptr nonnull %6) #6
  ret void
}